target datalayout = "e-m:e-p270:32:32-p271:32:32-p272:64:64-i64:64-i128:128-f80:128-n8:16:32:64-S128"
target triple = "x86_64-unknown-linux-gnu"

%"class.cvc5::internal::theory::arith::linear::ValueCollection" = type { ptr, ptr, ptr, ptr }

@.str.10 = private unnamed_addr constant [15 x i8] c"NullConstraint\00", align 1
@.str.17 = private unnamed_addr constant [2 x i8] c"{\00", align 1
@.str.18 = private unnamed_addr constant [5 x i8] c"eq: \00", align 1
@.str.19 = private unnamed_addr constant [3 x i8] c", \00", align 1
@.str.20 = private unnamed_addr constant [5 x i8] c"lb: \00", align 1
@.str.21 = private unnamed_addr constant [5 x i8] c"ub: \00", align 1
@.str.22 = private unnamed_addr constant [5 x i8] c"de: \00", align 1
@.str.23 = private unnamed_addr constant [2 x i8] c"}\00", align 1

; Function Attrs: mustprogress nounwind uwtable
define hidden noundef ptr @_ZNK4cvc58internal6theory5arith6linear15ValueCollection14getDisequalityEv(ptr noundef nonnull align 8 dereferenceable(32) %this) #4 align 2 {
entry:
  %this.addr = alloca ptr, align 8
  store ptr %this, ptr %this.addr, align 8
  %this1 = load ptr, ptr %this.addr, align 8
  %d_disequality = getelementptr inbounds %"class.cvc5::internal::theory::arith::linear::ValueCollection", ptr %this1, i32 0, i32 3
  %0 = load ptr, ptr %d_disequality, align 8
  ret ptr %0
}

; Function Attrs: mustprogress nounwind uwtable
define hidden noundef zeroext i1 @_ZNK4cvc58internal6theory5arith6linear15ValueCollection14hasDisequalityEv(ptr noundef nonnull align 8 dereferenceable(32) %this) #4 align 2 {
entry:
  %this.addr = alloca ptr, align 8
  store ptr %this, ptr %this.addr, align 8
  %this1 = load ptr, ptr %this.addr, align 8
  %d_disequality = getelementptr inbounds %"class.cvc5::internal::theory::arith::linear::ValueCollection", ptr %this1, i32 0, i32 3
  %0 = load ptr, ptr %d_disequality, align 8
  %cmp = icmp ne ptr %0, null
  ret i1 %cmp
}

; Function Attrs: mustprogress nounwind uwtable
define hidden noundef ptr @_ZNK4cvc58internal6theory5arith6linear15ValueCollection13getUpperBoundEv(ptr noundef nonnull align 8 dereferenceable(32) %this) #4 align 2 {
entry:
  %this.addr = alloca ptr, align 8
  store ptr %this, ptr %this.addr, align 8
  %this1 = load ptr, ptr %this.addr, align 8
  %d_upperBound = getelementptr inbounds %"class.cvc5::internal::theory::arith::linear::ValueCollection", ptr %this1, i32 0, i32 1
  %0 = load ptr, ptr %d_upperBound, align 8
  ret ptr %0
}

; Function Attrs: mustprogress nounwind uwtable
define hidden noundef zeroext i1 @_ZNK4cvc58internal6theory5arith6linear15ValueCollection13hasUpperBoundEv(ptr noundef nonnull align 8 dereferenceable(32) %this) #4 align 2 {
entry:
  %this.addr = alloca ptr, align 8
  store ptr %this, ptr %this.addr, align 8
  %this1 = load ptr, ptr %this.addr, align 8
  %d_upperBound = getelementptr inbounds %"class.cvc5::internal::theory::arith::linear::ValueCollection", ptr %this1, i32 0, i32 1
  %0 = load ptr, ptr %d_upperBound, align 8
  %cmp = icmp ne ptr %0, null
  ret i1 %cmp
}

; Function Attrs: mustprogress nounwind uwtable
define hidden noundef ptr @_ZNK4cvc58internal6theory5arith6linear15ValueCollection13getLowerBoundEv(ptr noundef nonnull align 8 dereferenceable(32) %this) #4 align 2 {
entry:
  %this.addr = alloca ptr, align 8
  store ptr %this, ptr %this.addr, align 8
  %this1 = load ptr, ptr %this.addr, align 8
  %d_lowerBound = getelementptr inbounds %"class.cvc5::internal::theory::arith::linear::ValueCollection", ptr %this1, i32 0, i32 0
  %0 = load ptr, ptr %d_lowerBound, align 8
  ret ptr %0
}

; Function Attrs: mustprogress nounwind uwtable
define hidden noundef zeroext i1 @_ZNK4cvc58internal6theory5arith6linear15ValueCollection13hasLowerBoundEv(ptr noundef nonnull align 8 dereferenceable(32) %this) #4 align 2 {
entry:
  %this.addr = alloca ptr, align 8
  store ptr %this, ptr %this.addr, align 8
  %this1 = load ptr, ptr %this.addr, align 8
  %d_lowerBound = getelementptr inbounds %"class.cvc5::internal::theory::arith::linear::ValueCollection", ptr %this1, i32 0, i32 0
  %0 = load ptr, ptr %d_lowerBound, align 8
  %cmp = icmp ne ptr %0, null
  ret i1 %cmp
}

; Function Attrs: mustprogress uwtable
define hidden noundef nonnull align 8 dereferenceable(8) ptr @_ZN4cvc58internal6theory5arith6linearlsERSoPNS3_10ConstraintE(ptr noundef nonnull align 8 dereferenceable(8) %o, ptr noundef %c) #5 {
entry:
  %retval = alloca ptr, align 8
  %o.addr = alloca ptr, align 8
  %c.addr = alloca ptr, align 8
  store ptr %o, ptr %o.addr, align 8
  store ptr %c, ptr %c.addr, align 8
  %0 = load ptr, ptr %c.addr, align 8
  %cmp = icmp eq ptr %0, null
  br i1 %cmp, label %if.then, label %if.else

if.then:                                          ; preds = %entry
  %1 = load ptr, ptr %o.addr, align 8
  %call = call noundef nonnull align 8 dereferenceable(8) ptr @_ZStlsISt11char_traitsIcEERSt13basic_ostreamIcT_ES5_PKc(ptr noundef nonnull align 8 dereferenceable(8) %1, ptr noundef @.str.10)
  store ptr %call, ptr %retval, align 8
  br label %return

if.else:                                          ; preds = %entry
  %2 = load ptr, ptr %o.addr, align 8
  %3 = load ptr, ptr %c.addr, align 8
  %call1 = call noundef nonnull align 8 dereferenceable(8) ptr @_ZN4cvc58internal6theory5arith6linearlsERSoRKNS3_10ConstraintE(ptr noundef nonnull align 8 dereferenceable(8) %2, ptr noundef nonnull align 8 dereferenceable(145) %3)
  store ptr %call1, ptr %retval, align 8
  br label %return

return:                                           ; preds = %if.else, %if.then
  %4 = load ptr, ptr %retval, align 8
  ret ptr %4
}

; Function Attrs: mustprogress nounwind uwtable
define hidden noundef ptr @_ZNK4cvc58internal6theory5arith6linear15ValueCollection11getEqualityEv(ptr noundef nonnull align 8 dereferenceable(32) %this) #4 align 2 {
entry:
  %this.addr = alloca ptr, align 8
  store ptr %this, ptr %this.addr, align 8
  %this1 = load ptr, ptr %this.addr, align 8
  %d_equality = getelementptr inbounds %"class.cvc5::internal::theory::arith::linear::ValueCollection", ptr %this1, i32 0, i32 2
  %0 = load ptr, ptr %d_equality, align 8
  ret ptr %0
}

; Function Attrs: mustprogress nounwind uwtable
define hidden noundef zeroext i1 @_ZNK4cvc58internal6theory5arith6linear15ValueCollection11hasEqualityEv(ptr noundef nonnull align 8 dereferenceable(32) %this) #4 align 2 {
entry:
  %this.addr = alloca ptr, align 8
  store ptr %this, ptr %this.addr, align 8
  %this1 = load ptr, ptr %this.addr, align 8
  %d_equality = getelementptr inbounds %"class.cvc5::internal::theory::arith::linear::ValueCollection", ptr %this1, i32 0, i32 2
  %0 = load ptr, ptr %d_equality, align 8
  %cmp = icmp ne ptr %0, null
  ret i1 %cmp
}

; Function Attrs: mustprogress uwtable
define hidden noundef nonnull align 8 dereferenceable(8) ptr @_ZN4cvc58internal6theory5arith6linearlsERSoRKNS3_15ValueCollectionE(ptr noundef nonnull align 8 dereferenceable(8) %o, ptr noundef nonnull align 8 dereferenceable(32) %vc) #5 {
entry:
  %o.addr = alloca ptr, align 8
  %vc.addr = alloca ptr, align 8
  %pending = alloca i8, align 1
  store ptr %o, ptr %o.addr, align 8
  store ptr %vc, ptr %vc.addr, align 8
  %0 = load ptr, ptr %o.addr, align 8
  %call = call noundef nonnull align 8 dereferenceable(8) ptr @_ZStlsISt11char_traitsIcEERSt13basic_ostreamIcT_ES5_PKc(ptr noundef nonnull align 8 dereferenceable(8) %0, ptr noundef @.str.17)
  store i8 0, ptr %pending, align 1
  %1 = load ptr, ptr %vc.addr, align 8
  %call1 = call noundef zeroext i1 @_ZNK4cvc58internal6theory5arith6linear15ValueCollection11hasEqualityEv(ptr noundef nonnull align 8 dereferenceable(32) %1)
  br i1 %call1, label %if.then, label %if.end

if.then:                                          ; preds = %entry
  %2 = load ptr, ptr %o.addr, align 8
  %call2 = call noundef nonnull align 8 dereferenceable(8) ptr @_ZStlsISt11char_traitsIcEERSt13basic_ostreamIcT_ES5_PKc(ptr noundef nonnull align 8 dereferenceable(8) %2, ptr noundef @.str.18)
  %3 = load ptr, ptr %vc.addr, align 8
  %call3 = call noundef ptr @_ZNK4cvc58internal6theory5arith6linear15ValueCollection11getEqualityEv(ptr noundef nonnull align 8 dereferenceable(32) %3)
  %call4 = call noundef nonnull align 8 dereferenceable(8) ptr @_ZN4cvc58internal6theory5arith6linearlsERSoPNS3_10ConstraintE(ptr noundef nonnull align 8 dereferenceable(8) %call2, ptr noundef %call3)
  store i8 1, ptr %pending, align 1
  br label %if.end

if.end:                                           ; preds = %if.then, %entry
  %4 = load ptr, ptr %vc.addr, align 8
  %call5 = call noundef zeroext i1 @_ZNK4cvc58internal6theory5arith6linear15ValueCollection13hasLowerBoundEv(ptr noundef nonnull align 8 dereferenceable(32) %4)
  br i1 %call5, label %if.then6, label %if.end13

if.then6:                                         ; preds = %if.end
  %5 = load i8, ptr %pending, align 1
  %tobool = trunc i8 %5 to i1
  br i1 %tobool, label %if.then7, label %if.end9

if.then7:                                         ; preds = %if.then6
  %6 = load ptr, ptr %o.addr, align 8
  %call8 = call noundef nonnull align 8 dereferenceable(8) ptr @_ZStlsISt11char_traitsIcEERSt13basic_ostreamIcT_ES5_PKc(ptr noundef nonnull align 8 dereferenceable(8) %6, ptr noundef @.str.19)
  br label %if.end9

if.end9:                                          ; preds = %if.then7, %if.then6
  %7 = load ptr, ptr %o.addr, align 8
  %call10 = call noundef nonnull align 8 dereferenceable(8) ptr @_ZStlsISt11char_traitsIcEERSt13basic_ostreamIcT_ES5_PKc(ptr noundef nonnull align 8 dereferenceable(8) %7, ptr noundef @.str.20)
  %8 = load ptr, ptr %vc.addr, align 8
  %call11 = call noundef ptr @_ZNK4cvc58internal6theory5arith6linear15ValueCollection13getLowerBoundEv(ptr noundef nonnull align 8 dereferenceable(32) %8)
  %call12 = call noundef nonnull align 8 dereferenceable(8) ptr @_ZN4cvc58internal6theory5arith6linearlsERSoPNS3_10ConstraintE(ptr noundef nonnull align 8 dereferenceable(8) %call10, ptr noundef %call11)
  store i8 1, ptr %pending, align 1
  br label %if.end13

if.end13:                                         ; preds = %if.end9, %if.end
  %9 = load ptr, ptr %vc.addr, align 8
  %call14 = call noundef zeroext i1 @_ZNK4cvc58internal6theory5arith6linear15ValueCollection13hasUpperBoundEv(ptr noundef nonnull align 8 dereferenceable(32) %9)
  br i1 %call14, label %if.then15, label %if.end23

if.then15:                                        ; preds = %if.end13
  %10 = load i8, ptr %pending, align 1
  %tobool16 = trunc i8 %10 to i1
  br i1 %tobool16, label %if.then17, label %if.end19

if.then17:                                        ; preds = %if.then15
  %11 = load ptr, ptr %o.addr, align 8
  %call18 = call noundef nonnull align 8 dereferenceable(8) ptr @_ZStlsISt11char_traitsIcEERSt13basic_ostreamIcT_ES5_PKc(ptr noundef nonnull align 8 dereferenceable(8) %11, ptr noundef @.str.19)
  br label %if.end19

if.end19:                                         ; preds = %if.then17, %if.then15
  %12 = load ptr, ptr %o.addr, align 8
  %call20 = call noundef nonnull align 8 dereferenceable(8) ptr @_ZStlsISt11char_traitsIcEERSt13basic_ostreamIcT_ES5_PKc(ptr noundef nonnull align 8 dereferenceable(8) %12, ptr noundef @.str.21)
  %13 = load ptr, ptr %vc.addr, align 8
  %call21 = call noundef ptr @_ZNK4cvc58internal6theory5arith6linear15ValueCollection13getUpperBoundEv(ptr noundef nonnull align 8 dereferenceable(32) %13)
  %call22 = call noundef nonnull align 8 dereferenceable(8) ptr @_ZN4cvc58internal6theory5arith6linearlsERSoPNS3_10ConstraintE(ptr noundef nonnull align 8 dereferenceable(8) %call20, ptr noundef %call21)
  store i8 1, ptr %pending, align 1
  br label %if.end23

if.end23:                                         ; preds = %if.end19, %if.end13
  %14 = load ptr, ptr %vc.addr, align 8
  %call24 = call noundef zeroext i1 @_ZNK4cvc58internal6theory5arith6linear15ValueCollection14hasDisequalityEv(ptr noundef nonnull align 8 dereferenceable(32) %14)
  br i1 %call24, label %if.then25, label %if.end33

if.then25:                                        ; preds = %if.end23
  %15 = load i8, ptr %pending, align 1
  %tobool26 = trunc i8 %15 to i1
  br i1 %tobool26, label %if.then27, label %if.end29

if.then27:                                        ; preds = %if.then25
  %16 = load ptr, ptr %o.addr, align 8
  %call28 = call noundef nonnull align 8 dereferenceable(8) ptr @_ZStlsISt11char_traitsIcEERSt13basic_ostreamIcT_ES5_PKc(ptr noundef nonnull align 8 dereferenceable(8) %16, ptr noundef @.str.19)
  br label %if.end29

if.end29:                                         ; preds = %if.then27, %if.then25
  %17 = load ptr, ptr %o.addr, align 8
  %call30 = call noundef nonnull align 8 dereferenceable(8) ptr @_ZStlsISt11char_traitsIcEERSt13basic_ostreamIcT_ES5_PKc(ptr noundef nonnull align 8 dereferenceable(8) %17, ptr noundef @.str.22)
  %18 = load ptr, ptr %vc.addr, align 8
  %call31 = call noundef ptr @_ZNK4cvc58internal6theory5arith6linear15ValueCollection14getDisequalityEv(ptr noundef nonnull align 8 dereferenceable(32) %18)
  %call32 = call noundef nonnull align 8 dereferenceable(8) ptr @_ZN4cvc58internal6theory5arith6linearlsERSoPNS3_10ConstraintE(ptr noundef nonnull align 8 dereferenceable(8) %call30, ptr noundef %call31)
  br label %if.end33

if.end33:                                         ; preds = %if.end29, %if.end23
  %19 = load ptr, ptr %o.addr, align 8
  %call34 = call noundef nonnull align 8 dereferenceable(8) ptr @_ZStlsISt11char_traitsIcEERSt13basic_ostreamIcT_ES5_PKc(ptr noundef nonnull align 8 dereferenceable(8) %19, ptr noundef @.str.23)
  ret ptr %call34
}