; Function Attrs: mustprogress uwtable
define hidden noundef nonnull align 8 dereferenceable(8) ptr @_ZN4cvc58internal6theory5arith6linearlsERSoRKNS3_15ValueCollectionE(ptr noundef nonnull align 8 dereferenceable(8) %o, ptr nocapture noundef nonnull readonly align 8 dereferenceable(32) %vc) local_unnamed_addr #4 {
entry:
  %call = tail call noundef nonnull align 8 dereferenceable(8) ptr @_ZStlsISt11char_traitsIcEERSt13basic_ostreamIcT_ES5_PKc(ptr noundef nonnull align 8 dereferenceable(8) %o, ptr noundef nonnull @.str.17)
  %d_equality.i = getelementptr inbounds i8, ptr %vc, i64 16
  %0 = load ptr, ptr %d_equality.i, align 8
  %cmp.i.not = icmp eq ptr %0, null
  br i1 %cmp.i.not, label %if.end.thread, label %if.then

if.then:                                          ; preds = %entry
  %call2 = tail call noundef nonnull align 8 dereferenceable(8) ptr @_ZStlsISt11char_traitsIcEERSt13basic_ostreamIcT_ES5_PKc(ptr noundef nonnull align 8 dereferenceable(8) %o, ptr noundef nonnull @.str.18)
  %1 = load ptr, ptr %d_equality.i, align 8
  %cmp.i19 = icmp eq ptr %1, null
  br i1 %cmp.i19, label %if.then.i, label %if.else.i

if.then.i:                                        ; preds = %if.then
  %call.i = tail call noundef nonnull align 8 dereferenceable(8) ptr @_ZStlsISt11char_traitsIcEERSt13basic_ostreamIcT_ES5_PKc(ptr noundef nonnull align 8 dereferenceable(8) %call2, ptr noundef nonnull @.str.10)
  br label %if.end

if.else.i:                                        ; preds = %if.then
  %call1.i = tail call noundef nonnull align 8 dereferenceable(8) ptr @_ZN4cvc58internal6theory5arith6linearlsERSoRKNS3_10ConstraintE(ptr noundef nonnull align 8 dereferenceable(8) %call2, ptr noundef nonnull align 8 dereferenceable(145) %1)
  br label %if.end

if.end:                                           ; preds = %if.else.i, %if.then.i
  %2 = load ptr, ptr %vc, align 8
  %cmp.i20.not = icmp eq ptr %2, null
  br i1 %cmp.i20.not, label %if.end13, label %if.then7

if.end.thread:                                    ; preds = %entry
  %3 = load ptr, ptr %vc, align 8
  %cmp.i2047.not = icmp eq ptr %3, null
  br i1 %cmp.i2047.not, label %if.end13.thread, label %if.end9

if.then7:                                         ; preds = %if.end
  %call8 = tail call noundef nonnull align 8 dereferenceable(8) ptr @_ZStlsISt11char_traitsIcEERSt13basic_ostreamIcT_ES5_PKc(ptr noundef nonnull align 8 dereferenceable(8) %o, ptr noundef nonnull @.str.19)
  br label %if.end9

if.end9:                                          ; preds = %if.end.thread, %if.then7
  %call10 = tail call noundef nonnull align 8 dereferenceable(8) ptr @_ZStlsISt11char_traitsIcEERSt13basic_ostreamIcT_ES5_PKc(ptr noundef nonnull align 8 dereferenceable(8) %o, ptr noundef nonnull @.str.20)
  %4 = load ptr, ptr %vc, align 8
  %cmp.i21 = icmp eq ptr %4, null
  br i1 %cmp.i21, label %if.then.i25, label %if.else.i22

if.then.i25:                                      ; preds = %if.end9
  %call.i26 = tail call noundef nonnull align 8 dereferenceable(8) ptr @_ZStlsISt11char_traitsIcEERSt13basic_ostreamIcT_ES5_PKc(ptr noundef nonnull align 8 dereferenceable(8) %call10, ptr noundef nonnull @.str.10)
  br label %if.end13

if.else.i22:                                      ; preds = %if.end9
  %call1.i23 = tail call noundef nonnull align 8 dereferenceable(8) ptr @_ZN4cvc58internal6theory5arith6linearlsERSoRKNS3_10ConstraintE(ptr noundef nonnull align 8 dereferenceable(8) %call10, ptr noundef nonnull align 8 dereferenceable(145) %4)
  br label %if.end13

if.end13:                                         ; preds = %if.else.i22, %if.then.i25, %if.end
  %d_upperBound.i = getelementptr inbounds i8, ptr %vc, i64 8
  %5 = load ptr, ptr %d_upperBound.i, align 8
  %cmp.i28.not = icmp eq ptr %5, null
  br i1 %cmp.i28.not, label %if.end23, label %if.then17

if.end13.thread:                                  ; preds = %if.end.thread
  %d_upperBound.i50 = getelementptr inbounds i8, ptr %vc, i64 8
  %6 = load ptr, ptr %d_upperBound.i50, align 8
  %cmp.i28.not51 = icmp eq ptr %6, null
  br i1 %cmp.i28.not51, label %if.end23.thread, label %if.end19

if.then17:                                        ; preds = %if.end13
  %call18 = tail call noundef nonnull align 8 dereferenceable(8) ptr @_ZStlsISt11char_traitsIcEERSt13basic_ostreamIcT_ES5_PKc(ptr noundef nonnull align 8 dereferenceable(8) %o, ptr noundef nonnull @.str.19)
  br label %if.end19

if.end19:                                         ; preds = %if.end13.thread, %if.then17
  %d_upperBound.i5356 = phi ptr [ %d_upperBound.i, %if.then17 ], [ %d_upperBound.i50, %if.end13.thread ]
  %call20 = tail call noundef nonnull align 8 dereferenceable(8) ptr @_ZStlsISt11char_traitsIcEERSt13basic_ostreamIcT_ES5_PKc(ptr noundef nonnull align 8 dereferenceable(8) %o, ptr noundef nonnull @.str.21)
  %7 = load ptr, ptr %d_upperBound.i5356, align 8
  %cmp.i30 = icmp eq ptr %7, null
  br i1 %cmp.i30, label %if.then.i34, label %if.else.i31

if.then.i34:                                      ; preds = %if.end19
  %call.i35 = tail call noundef nonnull align 8 dereferenceable(8) ptr @_ZStlsISt11char_traitsIcEERSt13basic_ostreamIcT_ES5_PKc(ptr noundef nonnull align 8 dereferenceable(8) %call20, ptr noundef nonnull @.str.10)
  br label %if.end23

if.else.i31:                                      ; preds = %if.end19
  %call1.i32 = tail call noundef nonnull align 8 dereferenceable(8) ptr @_ZN4cvc58internal6theory5arith6linearlsERSoRKNS3_10ConstraintE(ptr noundef nonnull align 8 dereferenceable(8) %call20, ptr noundef nonnull align 8 dereferenceable(145) %7)
  br label %if.end23

if.end23:                                         ; preds = %if.else.i31, %if.then.i34, %if.end13
  %d_disequality.i = getelementptr inbounds i8, ptr %vc, i64 24
  %8 = load ptr, ptr %d_disequality.i, align 8
  %cmp.i37.not = icmp eq ptr %8, null
  br i1 %cmp.i37.not, label %if.end33, label %if.then27

if.end23.thread:                                  ; preds = %if.end13.thread
  %d_disequality.i58 = getelementptr inbounds i8, ptr %vc, i64 24
  %9 = load ptr, ptr %d_disequality.i58, align 8
  %cmp.i37.not59 = icmp eq ptr %9, null
  br i1 %cmp.i37.not59, label %if.end33, label %if.end29

if.then27:                                        ; preds = %if.end23
  %call28 = tail call noundef nonnull align 8 dereferenceable(8) ptr @_ZStlsISt11char_traitsIcEERSt13basic_ostreamIcT_ES5_PKc(ptr noundef nonnull align 8 dereferenceable(8) %o, ptr noundef nonnull @.str.19)
  br label %if.end29

if.end29:                                         ; preds = %if.end23.thread, %if.then27
  %d_disequality.i6165 = phi ptr [ %d_disequality.i, %if.then27 ], [ %d_disequality.i58, %if.end23.thread ]
  %call30 = tail call noundef nonnull align 8 dereferenceable(8) ptr @_ZStlsISt11char_traitsIcEERSt13basic_ostreamIcT_ES5_PKc(ptr noundef nonnull align 8 dereferenceable(8) %o, ptr noundef nonnull @.str.22)
  %10 = load ptr, ptr %d_disequality.i6165, align 8
  %cmp.i39 = icmp eq ptr %10, null
  br i1 %cmp.i39, label %if.then.i43, label %if.else.i40

if.then.i43:                                      ; preds = %if.end29
  %call.i44 = tail call noundef nonnull align 8 dereferenceable(8) ptr @_ZStlsISt11char_traitsIcEERSt13basic_ostreamIcT_ES5_PKc(ptr noundef nonnull align 8 dereferenceable(8) %call30, ptr noundef nonnull @.str.10)
  br label %if.end33

if.else.i40:                                      ; preds = %if.end29
  %call1.i41 = tail call noundef nonnull align 8 dereferenceable(8) ptr @_ZN4cvc58internal6theory5arith6linearlsERSoRKNS3_10ConstraintE(ptr noundef nonnull align 8 dereferenceable(8) %call30, ptr noundef nonnull align 8 dereferenceable(145) %10)
  br label %if.end33

if.end33:                                         ; preds = %if.end23.thread, %if.else.i40, %if.then.i43, %if.end23
  %call34 = tail call noundef nonnull align 8 dereferenceable(8) ptr @_ZStlsISt11char_traitsIcEERSt13basic_ostreamIcT_ES5_PKc(ptr noundef nonnull align 8 dereferenceable(8) %o, ptr noundef nonnull @.str.23)
  ret ptr %call34
}